; Function Attrs: mustprogress uwtable
define void @ggml_backend_register(ptr noundef %0) local_unnamed_addr #0 personality ptr @__gxx_personality_v0 {
  %2 = alloca %"class.std::unique_ptr", align 8
  %3 = load atomic i8, ptr @_ZGVZL7get_regvE3reg acquire, align 8
  %4 = icmp eq i8 %3, 0
  br i1 %4, label %5, label %_ZL7get_regv.exit, !prof !3

5:                                                ; preds = %1
  %6 = tail call i32 @__cxa_guard_acquire(ptr nonnull @_ZGVZL7get_regvE3reg) #26
  %.not.i = icmp eq i32 %6, 0
  br i1 %.not.i, label %_ZL7get_regv.exit, label %7

7:                                                ; preds = %5
  invoke void @_ZN21ggml_backend_registryC2Ev(ptr noundef nonnull align 8 dereferenceable(48) @_ZZL7get_regvE3reg)
          to label %8 unwind label %10

8:                                                ; preds = %7
  %9 = tail call i32 @__cxa_atexit(ptr nonnull @_ZN21ggml_backend_registryD2Ev, ptr nonnull @_ZZL7get_regvE3reg, ptr nonnull @__dso_handle) #26
  tail call void @__cxa_guard_release(ptr nonnull @_ZGVZL7get_regvE3reg) #26
  br label %_ZL7get_regv.exit

common.resume:                                    ; preds = %19, %16, %10
  %common.resume.op = phi { ptr, i32 } [ %11, %10 ], [ %17, %16 ], [ %17, %19 ]
  resume { ptr, i32 } %common.resume.op

10:                                               ; preds = %7
  %11 = landingpad { ptr, i32 }
          cleanup
  tail call void @__cxa_guard_abort(ptr nonnull @_ZGVZL7get_regvE3reg) #26
  br label %common.resume

_ZL7get_regv.exit:                                ; preds = %1, %5, %8
  store ptr null, ptr %2, align 8, !tbaa !4
  invoke void @_ZN21ggml_backend_registry16register_backendEP16ggml_backend_regSt10unique_ptrIv17dl_handle_deleterE(ptr noundef nonnull align 8 dereferenceable(48) @_ZZL7get_regvE3reg, ptr noundef %0, ptr noundef nonnull %2)
          to label %12 unwind label %16

12:                                               ; preds = %_ZL7get_regv.exit
  %13 = load ptr, ptr %2, align 8, !tbaa !9
  %.not.i2 = icmp eq ptr %13, null
  br i1 %.not.i2, label %_ZNSt10unique_ptrIv17dl_handle_deleterED2Ev.exit, label %14

14:                                               ; preds = %12
  %15 = call i32 @dlclose(ptr noundef nonnull %13) #26
  br label %_ZNSt10unique_ptrIv17dl_handle_deleterED2Ev.exit

_ZNSt10unique_ptrIv17dl_handle_deleterED2Ev.exit: ; preds = %12, %14
  ret void

16:                                               ; preds = %_ZL7get_regv.exit
  %17 = landingpad { ptr, i32 }
          cleanup
  %18 = load ptr, ptr %2, align 8, !tbaa !9
  %.not.i3 = icmp eq ptr %18, null
  br i1 %.not.i3, label %common.resume, label %19

19:                                               ; preds = %16
  %20 = call i32 @dlclose(ptr noundef nonnull %18) #26
  br label %common.resume
}